target datalayout = "e-m:e-p270:32:32-p271:32:32-p272:64:64-i64:64-i128:128-f80:128-n8:16:32:64-S128"
target triple = "x86_64-unknown-linux-gnu"

%class.date = type { i32, i32, i32 }

; Function Attrs: mustprogress nounwind uwtable
define linkonce_odr hidden noundef i32 @_ZNK4date3dayEv(ptr noundef nonnull align 4 dereferenceable(12) %this) #5 comdat align 2 {
entry:
  %this.addr = alloca ptr, align 8
  store ptr %this, ptr %this.addr, align 8
  %this1 = load ptr, ptr %this.addr, align 8
  %day_ = getelementptr inbounds %class.date, ptr %this1, i32 0, i32 2
  %0 = load i32, ptr %day_, align 4
  ret i32 %0
}

; Function Attrs: mustprogress nounwind uwtable
define linkonce_odr hidden noundef i32 @_ZNK4date5monthEv(ptr noundef nonnull align 4 dereferenceable(12) %this) #5 comdat align 2 {
entry:
  %this.addr = alloca ptr, align 8
  store ptr %this, ptr %this.addr, align 8
  %this1 = load ptr, ptr %this.addr, align 8
  %month_ = getelementptr inbounds %class.date, ptr %this1, i32 0, i32 1
  %0 = load i32, ptr %month_, align 4
  ret i32 %0
}

; Function Attrs: mustprogress nounwind uwtable
define linkonce_odr hidden noundef i32 @_ZNK4date4yearEv(ptr noundef nonnull align 4 dereferenceable(12) %this) #5 comdat align 2 {
entry:
  %this.addr = alloca ptr, align 8
  store ptr %this, ptr %this.addr, align 8
  %this1 = load ptr, ptr %this.addr, align 8
  %year_ = getelementptr inbounds %class.date, ptr %this1, i32 0, i32 0
  %0 = load i32, ptr %year_, align 4
  ret i32 %0
}

; Function Attrs: mustprogress uwtable
define hidden noundef nonnull align 8 dereferenceable(8) ptr @_ZlsRSt13basic_ostreamIwSt11char_traitsIwEERK4date(ptr noundef nonnull align 8 dereferenceable(8) %os, ptr noundef nonnull align 4 dereferenceable(12) %d) #4 {
entry:
  %os.addr = alloca ptr, align 8
  %d.addr = alloca ptr, align 8
  store ptr %os, ptr %os.addr, align 8
  store ptr %d, ptr %d.addr, align 8
  %0 = load ptr, ptr %os.addr, align 8
  %1 = load ptr, ptr %d.addr, align 8
  %call = call noundef i32 @_ZNK4date4yearEv(ptr noundef nonnull align 4 dereferenceable(12) %1)
  %call1 = call noundef nonnull align 8 dereferenceable(8) ptr @_ZNSt13basic_ostreamIwSt11char_traitsIwEElsEi(ptr noundef nonnull align 8 dereferenceable(8) %0, i32 noundef %call)
  %call2 = call noundef nonnull align 8 dereferenceable(8) ptr @_ZStlsIwSt11char_traitsIwEERSt13basic_ostreamIT_T0_ES6_S3_(ptr noundef nonnull align 8 dereferenceable(8) %call1, i32 noundef signext 45)
  %2 = load ptr, ptr %d.addr, align 8
  %call3 = call noundef i32 @_ZNK4date5monthEv(ptr noundef nonnull align 4 dereferenceable(12) %2)
  %call4 = call noundef nonnull align 8 dereferenceable(8) ptr @_ZNSt13basic_ostreamIwSt11char_traitsIwEElsEi(ptr noundef nonnull align 8 dereferenceable(8) %call2, i32 noundef %call3)
  %call5 = call noundef nonnull align 8 dereferenceable(8) ptr @_ZStlsIwSt11char_traitsIwEERSt13basic_ostreamIT_T0_ES6_S3_(ptr noundef nonnull align 8 dereferenceable(8) %call4, i32 noundef signext 45)
  %3 = load ptr, ptr %d.addr, align 8
  %call6 = call noundef i32 @_ZNK4date3dayEv(ptr noundef nonnull align 4 dereferenceable(12) %3)
  %call7 = call noundef nonnull align 8 dereferenceable(8) ptr @_ZNSt13basic_ostreamIwSt11char_traitsIwEElsEi(ptr noundef nonnull align 8 dereferenceable(8) %call5, i32 noundef %call6)
  %4 = load ptr, ptr %os.addr, align 8
  ret ptr %4
}