; Function Attrs: mustprogress uwtable
define hidden noundef nonnull align 8 dereferenceable(8) ptr @_ZlsRSt13basic_ostreamIwSt11char_traitsIwEERK4date(ptr noundef nonnull returned align 8 dereferenceable(8) %os, ptr nocapture noundef nonnull readonly align 4 dereferenceable(12) %d) local_unnamed_addr #3 {
entry:
  %0 = load i32, ptr %d, align 4
  %call1 = tail call noundef nonnull align 8 dereferenceable(8) ptr @_ZNSt13basic_ostreamIwSt11char_traitsIwEElsEi(ptr noundef nonnull align 8 dereferenceable(8) %os, i32 noundef %0)
  %call2 = tail call noundef nonnull align 8 dereferenceable(8) ptr @_ZStlsIwSt11char_traitsIwEERSt13basic_ostreamIT_T0_ES6_S3_(ptr noundef nonnull align 8 dereferenceable(8) %call1, i32 noundef signext 45)
  %month_.i = getelementptr inbounds i8, ptr %d, i64 4
  %1 = load i32, ptr %month_.i, align 4
  %call4 = tail call noundef nonnull align 8 dereferenceable(8) ptr @_ZNSt13basic_ostreamIwSt11char_traitsIwEElsEi(ptr noundef nonnull align 8 dereferenceable(8) %call2, i32 noundef %1)
  %call5 = tail call noundef nonnull align 8 dereferenceable(8) ptr @_ZStlsIwSt11char_traitsIwEERSt13basic_ostreamIT_T0_ES6_S3_(ptr noundef nonnull align 8 dereferenceable(8) %call4, i32 noundef signext 45)
  %day_.i = getelementptr inbounds i8, ptr %d, i64 8
  %2 = load i32, ptr %day_.i, align 4
  %call7 = tail call noundef nonnull align 8 dereferenceable(8) ptr @_ZNSt13basic_ostreamIwSt11char_traitsIwEElsEi(ptr noundef nonnull align 8 dereferenceable(8) %call5, i32 noundef %2)
  ret ptr %os
}